target datalayout = "e-m:e-p270:32:32-p271:32:32-p272:64:64-i64:64-i128:128-f80:128-n8:16:32:64-S128"
target triple = "x86_64-pc-linux-gnu"

%struct._zend_fcall_info_cache = type { ptr, ptr, ptr, ptr, ptr }
%struct._zend_executor_globals = type { %struct._zval_struct, %struct._zval_struct, [32 x ptr], ptr, ptr, %struct._zend_array, %struct._zend_array, ptr, i32, i32, ptr, ptr, ptr, ptr, ptr, ptr, i64, ptr, ptr, i32, i32, i64, i32, i32, i32, i8, i8, %struct.zend_atomic_bool_s, %struct.zend_atomic_bool_s, ptr, i64, ptr, ptr, %struct._zend_array, %struct._zend_array, i32, i8, %struct._zval_struct, %struct._zval_struct, %struct._zend_stack, %struct._zend_stack, %struct._zend_stack, ptr, i32, i32, i64, ptr, ptr, ptr, %struct._zend_objects_store, ptr, ptr, ptr, [3 x %struct._zend_op], ptr, i8, i8, i64, i32, i32, ptr, [16 x %struct._HashTableIterator], ptr, %union._zend_function, %struct._zend_op, %struct._zend_array, i64, %struct.zend_get_gc_buffer, ptr, ptr, ptr, i64, i8, i32, ptr, ptr, i64, %struct._zend_call_stack, i64, i64, [6 x ptr] }
%struct.zend_atomic_bool_s = type { i8 }
%struct._zval_struct = type { %union._zend_value, %union.anon.3, %union.anon.6 }
%union._zend_value = type { i64 }
%union.anon.3 = type { i32 }
%union.anon.6 = type { i32 }
%struct._zend_stack = type { i32, i32, i32, ptr }
%struct._zend_objects_store = type { ptr, i32, i32, i32 }
%struct._HashTableIterator = type { ptr, i32, i32 }
%union._zend_function = type { %struct._zend_op_array }
%struct._zend_op_array = type { i8, [3 x i8], i32, ptr, ptr, ptr, i32, i32, ptr, ptr, ptr, ptr, i32, i32, i32, i32, ptr, ptr, ptr, ptr, ptr, i32, i32, ptr, ptr, ptr, i32, i32, i32, i32, ptr, ptr, [6 x ptr] }
%struct._zend_op = type { ptr, %union._znode_op, %union._znode_op, %union._znode_op, i32, i32, i8, i8, i8, i8 }
%union._znode_op = type { i32 }
%struct._zend_array = type { %struct._zend_refcounted_h, %union.anon.0, i32, %union.anon.1, i32, i32, i32, i32, i64, ptr }
%struct._zend_refcounted_h = type { i32, %union.anon }
%union.anon = type { i32 }
%union.anon.0 = type { i32 }
%union.anon.1 = type { ptr }
%struct.zend_get_gc_buffer = type { ptr, ptr, ptr }
%struct._zend_call_stack = type { ptr, i64 }
%struct.php_dom_xpath_callback_ns = type { %struct._zend_array, i32 }
%struct.anon.13 = type { i8, [3 x i8], i32, ptr, ptr, ptr, i32, i32, ptr, ptr, ptr, ptr, i32 }
%struct._zend_string = type { %struct._zend_refcounted_h, i64, i64, [1 x i8] }

@.str.4 = private unnamed_addr constant [30 x i8] c"must be a valid callback name\00", align 1
@executor_globals = external global %struct._zend_executor_globals, align 8
@.str.7 = private unnamed_addr constant [49 x i8] c"must be an array containing valid callback names\00", align 1

; Function Attrs: nounwind uwtable
define internal zeroext i1 @php_dom_xpath_is_callback_name_valid(ptr noundef %0, i32 noundef %1) #0 {
  %3 = alloca ptr, align 8
  %4 = alloca i1, align 1
  %5 = alloca ptr, align 8
  %6 = alloca i32, align 4
  store ptr %0, ptr %5, align 8
  store i32 %1, ptr %6, align 4
  %7 = load ptr, ptr %5, align 8
  %8 = getelementptr inbounds %struct._zend_string, ptr %7, i32 0, i32 2
  %9 = load i64, ptr %8, align 8
  %10 = icmp eq i64 %9, 0
  br i1 %10, label %11, label %12

11:                                               ; preds = %2
  store i1 false, ptr %4, align 1
  br label %41

12:                                               ; preds = %2
  %13 = load i32, ptr %6, align 4
  %14 = icmp eq i32 %13, 0
  br i1 %14, label %18, label %15

15:                                               ; preds = %12
  %16 = load i32, ptr %6, align 4
  %17 = icmp eq i32 %16, 1
  br i1 %17, label %18, label %29

18:                                               ; preds = %15, %12
  %19 = load ptr, ptr %5, align 8
  store ptr %19, ptr %3, align 8
  %20 = load ptr, ptr %3, align 8
  %21 = getelementptr inbounds %struct._zend_string, ptr %20, i32 0, i32 2
  %22 = load i64, ptr %21, align 8
  %23 = load ptr, ptr %3, align 8
  %24 = getelementptr inbounds %struct._zend_string, ptr %23, i32 0, i32 3
  %25 = call i64 @strlen(ptr noundef %24) #9
  %26 = icmp ne i64 %22, %25
  br i1 %26, label %27, label %28

27:                                               ; preds = %18
  store i1 false, ptr %4, align 1
  br label %41

28:                                               ; preds = %18
  br label %29

29:                                               ; preds = %28, %15
  %30 = load i32, ptr %6, align 4
  %31 = icmp eq i32 %30, 1
  br i1 %31, label %32, label %40

32:                                               ; preds = %29
  %33 = load ptr, ptr %5, align 8
  %34 = getelementptr inbounds %struct._zend_string, ptr %33, i32 0, i32 3
  %35 = getelementptr inbounds [1 x i8], ptr %34, i64 0, i64 0
  %36 = call i32 @xmlValidateNCName(ptr noundef %35, i32 noundef 0)
  %37 = icmp ne i32 %36, 0
  br i1 %37, label %38, label %39

38:                                               ; preds = %32
  store i1 false, ptr %4, align 1
  br label %41

39:                                               ; preds = %32
  br label %40

40:                                               ; preds = %39, %29
  store i1 true, ptr %4, align 1
  br label %41

41:                                               ; preds = %40, %38, %27, %11
  %42 = load i1, ptr %4, align 1
  ret i1 %42
}

; Function Attrs: nounwind uwtable
define internal zeroext i1 @php_dom_xpath_is_callback_name_valid_and_throw(ptr noundef %0, i32 noundef %1, i1 noundef zeroext %2) #0 {
  %4 = alloca i1, align 1
  %5 = alloca ptr, align 8
  %6 = alloca i32, align 4
  %7 = alloca i8, align 1
  store ptr %0, ptr %5, align 8
  store i32 %1, ptr %6, align 4
  %8 = zext i1 %2 to i8
  store i8 %8, ptr %7, align 1
  %9 = load ptr, ptr %5, align 8
  %10 = load i32, ptr %6, align 4
  %11 = call zeroext i1 @php_dom_xpath_is_callback_name_valid(ptr noundef %9, i32 noundef %10)
  br i1 %11, label %18, label %12

12:                                               ; preds = %3
  %13 = load i8, ptr %7, align 1
  %14 = trunc i8 %13 to i1
  br i1 %14, label %15, label %16

15:                                               ; preds = %12
  call void (i32, ptr, ...) @zend_argument_value_error(i32 noundef 1, ptr noundef @.str.7)
  br label %17

16:                                               ; preds = %12
  call void (i32, ptr, ...) @zend_argument_value_error(i32 noundef 2, ptr noundef @.str.4)
  br label %17

17:                                               ; preds = %16, %15
  store i1 false, ptr %4, align 1
  br label %19

18:                                               ; preds = %3
  store i1 true, ptr %4, align 1
  br label %19

19:                                               ; preds = %18, %17
  %20 = load i1, ptr %4, align 1
  ret i1 %20
}

; Function Attrs: nounwind uwtable
define i32 @php_dom_xpath_callbacks_update_single_method_handler(ptr noundef %0, ptr noundef %1, ptr noundef %2, ptr noundef %3, ptr noundef %4, i32 noundef %5, ptr noundef %6) #0 {
  %8 = alloca ptr, align 8
  %9 = alloca ptr, align 8
  %10 = alloca ptr, align 8
  %11 = alloca ptr, align 8
  %12 = alloca ptr, align 8
  %13 = alloca ptr, align 8
  %14 = alloca i32, align 4
  %15 = alloca ptr, align 8
  %16 = alloca ptr, align 8
  %17 = alloca ptr, align 8
  %18 = alloca ptr, align 8
  %19 = alloca ptr, align 8
  %20 = alloca i32, align 4
  %21 = alloca ptr, align 8
  %22 = alloca ptr, align 8
  %23 = alloca ptr, align 8
  %24 = alloca %struct._zval_struct, align 8
  store ptr %0, ptr %15, align 8
  store ptr %1, ptr %16, align 8
  store ptr %2, ptr %17, align 8
  store ptr %3, ptr %18, align 8
  store ptr %4, ptr %19, align 8
  store i32 %5, ptr %20, align 4
  store ptr %6, ptr %21, align 8
  %25 = load ptr, ptr %18, align 8
  %26 = load i32, ptr %20, align 4
  %27 = call zeroext i1 @php_dom_xpath_is_callback_name_valid_and_throw(ptr noundef %25, i32 noundef %26, i1 noundef zeroext false)
  br i1 %27, label %29, label %28

28:                                               ; preds = %7
  store i32 -1, ptr %14, align 4
  br label %102

29:                                               ; preds = %7
  %30 = load ptr, ptr %15, align 8
  %31 = load ptr, ptr %17, align 8
  %32 = call ptr @php_dom_xpath_callbacks_ensure_ns(ptr noundef %30, ptr noundef %31)
  store ptr %32, ptr %22, align 8
  %33 = call noalias ptr @_emalloc_64()
  store ptr %33, ptr %23, align 8
  %34 = load ptr, ptr %23, align 8
  %35 = load ptr, ptr %19, align 8
  store ptr %34, ptr %12, align 8
  store ptr %35, ptr %13, align 8
  %36 = load ptr, ptr %12, align 8
  %37 = load ptr, ptr %13, align 8
  call void @llvm.memcpy.p0.p0.i64(ptr align 8 %36, ptr align 8 %37, i64 40, i1 false)
  %38 = load ptr, ptr %12, align 8
  store ptr %38, ptr %10, align 8
  %39 = load ptr, ptr %10, align 8
  %40 = load ptr, ptr %39, align 8
  %41 = icmp ne ptr %40, null
  br i1 %41, label %42, label %43

42:                                               ; preds = %29
  br label %43

43:                                               ; preds = %42, %29
  %44 = phi i1 [ false, %29 ], [ true, %42 ]
  call void @llvm.assume(i1 %44)
  %45 = load ptr, ptr %10, align 8
  %46 = load ptr, ptr %45, align 8
  %47 = icmp eq ptr %46, getelementptr inbounds (%struct._zend_executor_globals, ptr @executor_globals, i32 0, i32 63)
  br i1 %47, label %48, label %58

48:                                               ; preds = %43
  %49 = call noalias ptr @_emalloc_256() #8
  store ptr %49, ptr %11, align 8
  %50 = load ptr, ptr %11, align 8
  %51 = load ptr, ptr %10, align 8
  %52 = load ptr, ptr %51, align 8
  call void @llvm.memcpy.p0.p0.i64(ptr align 8 %50, ptr align 8 %52, i64 240, i1 false)
  %53 = load ptr, ptr %10, align 8
  %54 = load ptr, ptr %53, align 8
  %55 = getelementptr inbounds %struct.anon.13, ptr %54, i32 0, i32 3
  store ptr null, ptr %55, align 8
  %56 = load ptr, ptr %11, align 8
  %57 = load ptr, ptr %10, align 8
  store ptr %56, ptr %57, align 8
  br label %58

58:                                               ; preds = %48, %43
  %59 = load ptr, ptr %10, align 8
  %60 = getelementptr inbounds %struct._zend_fcall_info_cache, ptr %59, i32 0, i32 3
  %61 = load ptr, ptr %60, align 8
  %62 = icmp ne ptr %61, null
  br i1 %62, label %63, label %70

63:                                               ; preds = %58
  %64 = load ptr, ptr %10, align 8
  %65 = getelementptr inbounds %struct._zend_fcall_info_cache, ptr %64, i32 0, i32 3
  %66 = load ptr, ptr %65, align 8
  store ptr %66, ptr %9, align 8
  %67 = load ptr, ptr %9, align 8
  %68 = load i32, ptr %67, align 4
  %69 = add i32 %68, 1
  store i32 %69, ptr %67, align 4
  br label %70

70:                                               ; preds = %63, %58
  %71 = load ptr, ptr %10, align 8
  %72 = getelementptr inbounds %struct._zend_fcall_info_cache, ptr %71, i32 0, i32 4
  %73 = load ptr, ptr %72, align 8
  %74 = icmp ne ptr %73, null
  br i1 %74, label %75, label %82

75:                                               ; preds = %70
  %76 = load ptr, ptr %10, align 8
  %77 = getelementptr inbounds %struct._zend_fcall_info_cache, ptr %76, i32 0, i32 4
  %78 = load ptr, ptr %77, align 8
  store ptr %78, ptr %8, align 8
  %79 = load ptr, ptr %8, align 8
  %80 = load i32, ptr %79, align 4
  %81 = add i32 %80, 1
  store i32 %81, ptr %79, align 4
  br label %82

82:                                               ; preds = %75, %70
  br label %83

83:                                               ; preds = %82
  %84 = load ptr, ptr %23, align 8
  %85 = getelementptr inbounds %struct._zval_struct, ptr %24, i32 0, i32 0
  store ptr %84, ptr %85, align 8
  %86 = getelementptr inbounds %struct._zval_struct, ptr %24, i32 0, i32 1
  store i32 13, ptr %86, align 8
  br label %87

87:                                               ; preds = %83
  %88 = load ptr, ptr %22, align 8
  %89 = getelementptr inbounds %struct.php_dom_xpath_callback_ns, ptr %88, i32 0, i32 0
  %90 = load ptr, ptr %18, align 8
  %91 = call ptr @zend_hash_update(ptr noundef %89, ptr noundef %90, ptr noundef %24)
  %92 = load ptr, ptr %21, align 8
  %93 = icmp ne ptr %92, null
  br i1 %93, label %94, label %99

94:                                               ; preds = %87
  %95 = load ptr, ptr %21, align 8
  %96 = load ptr, ptr %16, align 8
  %97 = load ptr, ptr %17, align 8
  %98 = load ptr, ptr %18, align 8
  call void %95(ptr noundef %96, ptr noundef %97, ptr noundef %98)
  br label %99

99:                                               ; preds = %94, %87
  %100 = load ptr, ptr %22, align 8
  %101 = getelementptr inbounds %struct.php_dom_xpath_callback_ns, ptr %100, i32 0, i32 1
  store i32 2, ptr %101, align 8
  store i32 0, ptr %14, align 4
  br label %102

102:                                              ; preds = %99, %28
  %103 = load i32, ptr %14, align 4
  ret i32 %103
}