; Function Attrs: nounwind uwtable
define noundef i32 @php_dom_xpath_callbacks_update_single_method_handler(ptr nocapture noundef %0, ptr noundef %1, ptr noundef %2, ptr noundef %3, ptr nocapture noundef readonly %4, i32 noundef %5, ptr noundef readonly %6) local_unnamed_addr #0 {
  %8 = alloca %struct._zval_struct, align 8
  %9 = getelementptr inbounds i8, ptr %3, i64 16
  %10 = load i64, ptr %9, align 8
  %11 = icmp eq i64 %10, 0
  br i1 %11, label %php_dom_xpath_is_callback_name_valid_and_throw.exit, label %12

12:                                               ; preds = %7
  %13 = icmp eq i32 %5, 1
  %or.cond.i.i = icmp ult i32 %5, 2
  br i1 %or.cond.i.i, label %14, label %20

14:                                               ; preds = %12
  %15 = getelementptr inbounds i8, ptr %3, i64 24
  %16 = tail call i64 @strlen(ptr noundef nonnull dereferenceable(1) %15) #10
  %.not.i.i = icmp eq i64 %10, %16
  br i1 %.not.i.i, label %17, label %php_dom_xpath_is_callback_name_valid_and_throw.exit

17:                                               ; preds = %14
  br i1 %13, label %18, label %20

18:                                               ; preds = %17
  %19 = tail call i32 @xmlValidateNCName(ptr noundef nonnull %15, i32 noundef 0) #9
  %.not10.i.i = icmp eq i32 %19, 0
  br i1 %.not10.i.i, label %20, label %php_dom_xpath_is_callback_name_valid_and_throw.exit

php_dom_xpath_is_callback_name_valid_and_throw.exit: ; preds = %7, %14, %18
  tail call void (i32, ptr, ...) @zend_argument_value_error(i32 noundef 2, ptr noundef nonnull @.str.4) #9
  br label %45

20:                                               ; preds = %12, %17, %18
  %21 = tail call fastcc ptr @php_dom_xpath_callbacks_ensure_ns(ptr noundef %0, ptr noundef %2)
  %22 = tail call noalias ptr @_emalloc_64() #9
  tail call void @llvm.memcpy.p0.p0.i64(ptr noundef nonnull align 8 dereferenceable(40) %22, ptr noundef nonnull align 8 dereferenceable(40) %4, i64 40, i1 false)
  %23 = load ptr, ptr %22, align 8, !nonnull !4, !noundef !4
  %24 = icmp eq ptr %23, getelementptr inbounds (%struct._zend_executor_globals, ptr @executor_globals, i64 0, i32 63)
  br i1 %24, label %25, label %27

25:                                               ; preds = %20
  %26 = tail call noalias ptr @_emalloc_256() #9
  tail call void @llvm.memcpy.p0.p0.i64(ptr noundef nonnull align 8 dereferenceable(240) %26, ptr noundef nonnull align 8 dereferenceable(240) getelementptr inbounds (%struct._zend_executor_globals, ptr @executor_globals, i64 0, i32 63), i64 240, i1 false)
  store ptr null, ptr getelementptr inbounds (%struct._zend_executor_globals, ptr @executor_globals, i64 0, i32 63, i32 0, i32 3), align 8
  store ptr %26, ptr %22, align 8
  br label %27

27:                                               ; preds = %25, %20
  %28 = getelementptr inbounds i8, ptr %22, i64 24
  %29 = load ptr, ptr %28, align 8
  %.not = icmp eq ptr %29, null
  br i1 %.not, label %33, label %30

30:                                               ; preds = %27
  %31 = load i32, ptr %29, align 4
  %32 = add i32 %31, 1
  store i32 %32, ptr %29, align 4
  br label %33

33:                                               ; preds = %30, %27
  %34 = getelementptr inbounds i8, ptr %22, i64 32
  %35 = load ptr, ptr %34, align 8
  %.not34 = icmp eq ptr %35, null
  br i1 %.not34, label %39, label %36

36:                                               ; preds = %33
  %37 = load i32, ptr %35, align 4
  %38 = add i32 %37, 1
  store i32 %38, ptr %35, align 4
  br label %39

39:                                               ; preds = %33, %36
  store ptr %22, ptr %8, align 8
  %40 = getelementptr inbounds i8, ptr %8, i64 8
  store i32 13, ptr %40, align 8
  %41 = call ptr @zend_hash_update(ptr noundef %21, ptr noundef nonnull %3, ptr noundef nonnull %8) #9
  %.not35 = icmp eq ptr %6, null
  br i1 %.not35, label %43, label %42

42:                                               ; preds = %39
  call void %6(ptr noundef %1, ptr noundef %2, ptr noundef nonnull %3) #9
  br label %43

43:                                               ; preds = %42, %39
  %44 = getelementptr inbounds i8, ptr %21, i64 56
  store i32 2, ptr %44, align 8
  br label %45

45:                                               ; preds = %php_dom_xpath_is_callback_name_valid_and_throw.exit, %43
  %.0 = phi i32 [ 0, %43 ], [ -1, %php_dom_xpath_is_callback_name_valid_and_throw.exit ]
  ret i32 %.0
}